; Function Attrs: mustprogress nofree nounwind memory(read, argmem: readwrite) uwtable
define hidden void @_ZN6Assimp11XFileParser22FindNextNoneWhiteSpaceEv(ptr nocapture noundef nonnull align 8 dereferenceable(56) %this) local_unnamed_addr #11 align 2 {
entry:
  %mIsBinaryFormat = getelementptr inbounds i8, ptr %this, i64 8
  %0 = load i8, ptr %mIsBinaryFormat, align 8
  %1 = and i8 %0, 1
  %tobool.not = icmp eq i8 %1, 0
  br i1 %tobool.not, label %while.cond.preheader, label %while.end31

while.cond.preheader:                             ; preds = %entry
  %mP = getelementptr inbounds i8, ptr %this, i64 24
  %mEnd = getelementptr inbounds i8, ptr %this, i64 32
  %2 = load ptr, ptr %mEnd, align 8
  %mP.promoted11 = load ptr, ptr %mP, align 8
  %cmp1016 = icmp ult ptr %mP.promoted11, %2
  br i1 %cmp1016, label %land.rhs.lr.ph.lr.ph, label %while.end31

land.rhs.lr.ph.lr.ph:                             ; preds = %while.cond.preheader
  %mLineNumber = getelementptr inbounds i8, ptr %this, i64 40
  %mLineNumber.promoted18 = load i32, ptr %mLineNumber, align 8
  br label %land.rhs

land.rhs:                                         ; preds = %land.rhs.backedge, %land.rhs.lr.ph.lr.ph
  %mLineNumber.promoted21 = phi i32 [ %mLineNumber.promoted18, %land.rhs.lr.ph.lr.ph ], [ %mLineNumber.promoted21.be, %land.rhs.backedge ]
  %incdec.ptr.i13 = phi ptr [ %mP.promoted11, %land.rhs.lr.ph.lr.ph ], [ %incdec.ptr.i13.be, %land.rhs.backedge ]
  %3 = phi i32 [ %mLineNumber.promoted18, %land.rhs.lr.ph.lr.ph ], [ %.be, %land.rhs.backedge ]
  %4 = load i8, ptr %incdec.ptr.i13, align 1
  %conv = zext i8 %4 to i32
  %call = tail call i32 @isspace(i32 noundef %conv) #22
  %tobool5.not = icmp eq i32 %call, 0
  br i1 %tobool5.not, label %if.end17, label %while.body6

while.body6:                                      ; preds = %land.rhs
  %cmp9 = icmp eq i8 %4, 10
  br i1 %cmp9, label %if.then10, label %if.end11

if.then10:                                        ; preds = %while.body6
  %inc = add i32 %3, 1
  store i32 %inc, ptr %mLineNumber, align 8
  br label %if.end11

if.end11:                                         ; preds = %if.then10, %while.body6
  %mLineNumber.promoted19 = phi i32 [ %inc, %if.then10 ], [ %mLineNumber.promoted21, %while.body6 ]
  %5 = phi i32 [ %inc, %if.then10 ], [ %3, %while.body6 ]
  %incdec.ptr = getelementptr inbounds i8, ptr %incdec.ptr.i13, i64 1
  store ptr %incdec.ptr, ptr %mP, align 8
  %cmp = icmp ult ptr %incdec.ptr, %2
  br i1 %cmp, label %land.rhs.backedge, label %while.end31

land.rhs.backedge:                                ; preds = %if.end11, %_ZN6Assimp11XFileParser18ReadUntilEndOfLineEv.exit
  %mLineNumber.promoted21.be = phi i32 [ %mLineNumber.promoted19, %if.end11 ], [ %inc.i, %_ZN6Assimp11XFileParser18ReadUntilEndOfLineEv.exit ]
  %incdec.ptr.i13.be = phi ptr [ %incdec.ptr, %if.end11 ], [ %incdec.ptr.i, %_ZN6Assimp11XFileParser18ReadUntilEndOfLineEv.exit ]
  %.be = phi i32 [ %5, %if.end11 ], [ %inc.i, %_ZN6Assimp11XFileParser18ReadUntilEndOfLineEv.exit ]
  br label %land.rhs, !llvm.loop !14

if.end17:                                         ; preds = %land.rhs
  switch i8 %4, label %while.end31 [
    i8 47, label %land.lhs.true
    i8 35, label %while.body.i.preheader
  ]

land.lhs.true:                                    ; preds = %if.end17
  %arrayidx22 = getelementptr inbounds i8, ptr %incdec.ptr.i13, i64 1
  %6 = load i8, ptr %arrayidx22, align 1
  %cmp24 = icmp eq i8 %6, 47
  br i1 %cmp24, label %while.body.i.preheader, label %while.end31

while.body.i.preheader:                           ; preds = %land.lhs.true, %if.end17
  br label %while.body.i

while.body.i:                                     ; preds = %while.body.i.preheader, %if.end9.i
  %7 = phi ptr [ %incdec.ptr11.i, %if.end9.i ], [ %incdec.ptr.i13, %while.body.i.preheader ]
  %8 = load i8, ptr %7, align 1
  switch i8 %8, label %if.end9.i [
    i8 10, label %_ZN6Assimp11XFileParser18ReadUntilEndOfLineEv.exit
    i8 13, label %_ZN6Assimp11XFileParser18ReadUntilEndOfLineEv.exit
  ]

if.end9.i:                                        ; preds = %while.body.i
  %incdec.ptr11.i = getelementptr inbounds i8, ptr %7, i64 1
  store ptr %incdec.ptr11.i, ptr %mP, align 8
  %exitcond.not.i = icmp eq ptr %incdec.ptr11.i, %2
  br i1 %exitcond.not.i, label %while.end31, label %while.body.i, !llvm.loop !7

_ZN6Assimp11XFileParser18ReadUntilEndOfLineEv.exit: ; preds = %while.body.i, %while.body.i
  %incdec.ptr.i = getelementptr inbounds i8, ptr %7, i64 1
  store ptr %incdec.ptr.i, ptr %mP, align 8
  %inc.i = add i32 %mLineNumber.promoted21, 1
  store i32 %inc.i, ptr %mLineNumber, align 8
  %cmp10 = icmp ult ptr %incdec.ptr.i, %2
  br i1 %cmp10, label %land.rhs.backedge, label %while.end31

while.end31:                                      ; preds = %if.end17, %land.lhs.true, %_ZN6Assimp11XFileParser18ReadUntilEndOfLineEv.exit, %if.end11, %if.end9.i, %while.cond.preheader, %entry
  ret void
}